target datalayout = "e-m:e-p270:32:32-p271:32:32-p272:64:64-i64:64-i128:128-f80:128-n8:16:32:64-S128"
target triple = "x86_64-pc-linux-gnu"

%struct.variable = type { ptr, ptr, i32, ptr }
%struct.arguments = type { ptr, ptr, ptr }

@.str.4 = private unnamed_addr constant [2 x i8] c"0\00", align 1
@base_yyout = external global ptr, align 8

; Function Attrs: nounwind uwtable
define dso_local void @dump_variables(ptr noundef %0, i32 noundef %1) #0 {
  %3 = alloca ptr, align 8
  %4 = alloca i32, align 4
  %5 = alloca ptr, align 8
  %6 = alloca i32, align 4
  store ptr %0, ptr %3, align 8
  store i32 %1, ptr %4, align 4
  call void @llvm.lifetime.start.p0(i64 8, ptr %5) #7
  %7 = load ptr, ptr %3, align 8
  %8 = icmp eq ptr %7, null
  br i1 %8, label %9, label %10

9:                                                ; preds = %2
  store i32 1, ptr %6, align 4
  br label %54

10:                                               ; preds = %2
  %11 = call ptr @mm_strdup(ptr noundef @.str.4)
  store ptr %11, ptr %5, align 8
  %12 = load ptr, ptr %3, align 8
  %13 = getelementptr inbounds nuw %struct.arguments, ptr %12, i32 0, i32 2
  %14 = load ptr, ptr %13, align 8
  %15 = load i32, ptr %4, align 4
  call void @dump_variables(ptr noundef %14, i32 noundef %15)
  %16 = load ptr, ptr @base_yyout, align 8
  %17 = load ptr, ptr %3, align 8
  %18 = getelementptr inbounds nuw %struct.arguments, ptr %17, i32 0, i32 0
  %19 = load ptr, ptr %18, align 8
  %20 = getelementptr inbounds nuw %struct.variable, ptr %19, i32 0, i32 0
  %21 = load ptr, ptr %20, align 8
  %22 = load ptr, ptr %3, align 8
  %23 = getelementptr inbounds nuw %struct.arguments, ptr %22, i32 0, i32 0
  %24 = load ptr, ptr %23, align 8
  %25 = getelementptr inbounds nuw %struct.variable, ptr %24, i32 0, i32 1
  %26 = load ptr, ptr %25, align 8
  %27 = load ptr, ptr %3, align 8
  %28 = getelementptr inbounds nuw %struct.arguments, ptr %27, i32 0, i32 0
  %29 = load ptr, ptr %28, align 8
  %30 = getelementptr inbounds nuw %struct.variable, ptr %29, i32 0, i32 2
  %31 = load i32, ptr %30, align 8
  %32 = load ptr, ptr %3, align 8
  %33 = getelementptr inbounds nuw %struct.arguments, ptr %32, i32 0, i32 1
  %34 = load ptr, ptr %33, align 8
  %35 = getelementptr inbounds nuw %struct.variable, ptr %34, i32 0, i32 0
  %36 = load ptr, ptr %35, align 8
  %37 = load ptr, ptr %3, align 8
  %38 = getelementptr inbounds nuw %struct.arguments, ptr %37, i32 0, i32 1
  %39 = load ptr, ptr %38, align 8
  %40 = getelementptr inbounds nuw %struct.variable, ptr %39, i32 0, i32 1
  %41 = load ptr, ptr %40, align 8
  %42 = load ptr, ptr %3, align 8
  %43 = getelementptr inbounds nuw %struct.arguments, ptr %42, i32 0, i32 1
  %44 = load ptr, ptr %43, align 8
  %45 = getelementptr inbounds nuw %struct.variable, ptr %44, i32 0, i32 2
  %46 = load i32, ptr %45, align 8
  %47 = load ptr, ptr %5, align 8
  call void @ECPGdump_a_type(ptr noundef %16, ptr noundef %21, ptr noundef %26, i32 noundef %31, ptr noundef %36, ptr noundef %41, i32 noundef %46, ptr noundef null, ptr noundef null, ptr noundef %47, ptr noundef null, ptr noundef null)
  %48 = load i32, ptr %4, align 4
  %49 = icmp ne i32 %48, 0
  br i1 %49, label %50, label %52

50:                                               ; preds = %10
  %51 = load ptr, ptr %3, align 8
  call void @free(ptr noundef %51) #7
  br label %52

52:                                               ; preds = %50, %10
  %53 = load ptr, ptr %5, align 8
  call void @free(ptr noundef %53) #7
  store i32 0, ptr %6, align 4
  br label %54

54:                                               ; preds = %52, %9
  call void @llvm.lifetime.end.p0(i64 8, ptr %5) #7
  %55 = load i32, ptr %6, align 4
  switch i32 %55, label %57 [
    i32 0, label %56
    i32 1, label %56
  ]

56:                                               ; preds = %54, %54
  ret void

57:                                               ; preds = %54
  unreachable
}