; Function Attrs: nounwind uwtable
define dso_local void @dump_variables(ptr noundef captures(address_is_null) %0, i32 noundef %1) local_unnamed_addr #0 {
  %3 = icmp eq ptr %0, null
  br i1 %3, label %24, label %4

4:                                                ; preds = %2
  %5 = tail call ptr @mm_strdup(ptr noundef nonnull @.str.4) #6
  %6 = getelementptr inbounds nuw i8, ptr %0, i64 16
  %7 = load ptr, ptr %6, align 8
  tail call void @dump_variables(ptr noundef %7, i32 noundef %1)
  %8 = load ptr, ptr @base_yyout, align 8
  %9 = load ptr, ptr %0, align 8
  %10 = load ptr, ptr %9, align 8
  %11 = getelementptr inbounds nuw i8, ptr %9, i64 8
  %12 = load ptr, ptr %11, align 8
  %13 = getelementptr inbounds nuw i8, ptr %9, i64 16
  %14 = load i32, ptr %13, align 8
  %15 = getelementptr inbounds nuw i8, ptr %0, i64 8
  %16 = load ptr, ptr %15, align 8
  %17 = load ptr, ptr %16, align 8
  %18 = getelementptr inbounds nuw i8, ptr %16, i64 8
  %19 = load ptr, ptr %18, align 8
  %20 = getelementptr inbounds nuw i8, ptr %16, i64 16
  %21 = load i32, ptr %20, align 8
  tail call void @ECPGdump_a_type(ptr noundef %8, ptr noundef %10, ptr noundef %12, i32 noundef %14, ptr noundef %17, ptr noundef %19, i32 noundef %21, ptr noundef null, ptr noundef null, ptr noundef %5, ptr noundef null, ptr noundef null) #6
  %.not = icmp eq i32 %1, 0
  br i1 %.not, label %23, label %22

22:                                               ; preds = %4
  tail call void @free(ptr noundef nonnull %0) #6
  br label %23

23:                                               ; preds = %22, %4
  tail call void @free(ptr noundef %5) #6
  br label %24

24:                                               ; preds = %2, %23
  ret void
}